target datalayout = "e-m:e-p270:32:32-p271:32:32-p272:64:64-i64:64-i128:128-f80:128-n8:16:32:64-S128"
target triple = "x86_64-pc-linux-gnu"

%struct.Aig_Obj_t_ = type { %union.anon, ptr, ptr, i64, i32, i32, %union.anon.0 }
%union.anon = type { ptr }
%union.anon.0 = type { ptr }
%struct.Vec_Ptr_t_ = type { i32, i32, ptr }

; Function Attrs: inlinehint nounwind uwtable
define internal i32 @Aig_ObjFaninC1(ptr noundef %0) #4 {
  %2 = alloca ptr, align 8
  store ptr %0, ptr %2, align 8, !tbaa !24
  %3 = load ptr, ptr %2, align 8, !tbaa !24
  %4 = getelementptr inbounds nuw %struct.Aig_Obj_t_, ptr %3, i32 0, i32 2
  %5 = load ptr, ptr %4, align 8, !tbaa !40
  %6 = call i32 @Aig_IsComplement(ptr noundef %5)
  ret i32 %6
}

; Function Attrs: inlinehint nounwind uwtable
define internal i32 @Aig_ObjFaninC0(ptr noundef %0) #4 {
  %2 = alloca ptr, align 8
  store ptr %0, ptr %2, align 8, !tbaa !24
  %3 = load ptr, ptr %2, align 8, !tbaa !24
  %4 = getelementptr inbounds nuw %struct.Aig_Obj_t_, ptr %3, i32 0, i32 1
  %5 = load ptr, ptr %4, align 8, !tbaa !37
  %6 = call i32 @Aig_IsComplement(ptr noundef %5)
  ret i32 %6
}

; Function Attrs: inlinehint nounwind uwtable
define internal ptr @Aig_ObjFanin1(ptr noundef %0) #4 {
  %2 = alloca ptr, align 8
  store ptr %0, ptr %2, align 8, !tbaa !24
  %3 = load ptr, ptr %2, align 8, !tbaa !24
  %4 = getelementptr inbounds nuw %struct.Aig_Obj_t_, ptr %3, i32 0, i32 2
  %5 = load ptr, ptr %4, align 8, !tbaa !40
  %6 = call ptr @Aig_Regular(ptr noundef %5)
  ret ptr %6
}

; Function Attrs: inlinehint nounwind uwtable
define internal ptr @Aig_ObjFanin0(ptr noundef %0) #4 {
  %2 = alloca ptr, align 8
  store ptr %0, ptr %2, align 8, !tbaa !24
  %3 = load ptr, ptr %2, align 8, !tbaa !24
  %4 = getelementptr inbounds nuw %struct.Aig_Obj_t_, ptr %3, i32 0, i32 1
  %5 = load ptr, ptr %4, align 8, !tbaa !37
  %6 = call ptr @Aig_Regular(ptr noundef %5)
  ret ptr %6
}

; Function Attrs: inlinehint nounwind uwtable
define internal i32 @Aig_ObjIsAnd(ptr noundef %0) #4 {
  %2 = alloca ptr, align 8
  store ptr %0, ptr %2, align 8, !tbaa !24
  %3 = load ptr, ptr %2, align 8, !tbaa !24
  %4 = getelementptr inbounds nuw %struct.Aig_Obj_t_, ptr %3, i32 0, i32 3
  %5 = load i64, ptr %4, align 8
  %6 = and i64 %5, 7
  %7 = trunc i64 %6 to i32
  %8 = icmp eq i32 %7, 5
  %9 = zext i1 %8 to i32
  ret i32 %9
}

; Function Attrs: inlinehint nounwind uwtable
define internal ptr @Aig_Regular(ptr noundef %0) #4 {
  %2 = alloca ptr, align 8
  store ptr %0, ptr %2, align 8, !tbaa !24
  %3 = load ptr, ptr %2, align 8, !tbaa !24
  %4 = ptrtoint ptr %3 to i64
  %5 = and i64 %4, -2
  %6 = inttoptr i64 %5 to ptr
  ret ptr %6
}

; Function Attrs: inlinehint nounwind uwtable
define internal i32 @Aig_IsComplement(ptr noundef %0) #4 {
  %2 = alloca ptr, align 8
  store ptr %0, ptr %2, align 8, !tbaa !24
  %3 = load ptr, ptr %2, align 8, !tbaa !24
  %4 = ptrtoint ptr %3 to i64
  %5 = and i64 %4, 1
  %6 = trunc i64 %5 to i32
  ret i32 %6
}

; Function Attrs: inlinehint nounwind uwtable
define internal ptr @Aig_ObjChild1(ptr noundef %0) #4 {
  %2 = alloca ptr, align 8
  store ptr %0, ptr %2, align 8, !tbaa !24
  %3 = load ptr, ptr %2, align 8, !tbaa !24
  %4 = getelementptr inbounds nuw %struct.Aig_Obj_t_, ptr %3, i32 0, i32 2
  %5 = load ptr, ptr %4, align 8, !tbaa !40
  ret ptr %5
}

; Function Attrs: inlinehint nounwind uwtable
define internal ptr @Aig_ObjChild0(ptr noundef %0) #4 {
  %2 = alloca ptr, align 8
  store ptr %0, ptr %2, align 8, !tbaa !24
  %3 = load ptr, ptr %2, align 8, !tbaa !24
  %4 = getelementptr inbounds nuw %struct.Aig_Obj_t_, ptr %3, i32 0, i32 1
  %5 = load ptr, ptr %4, align 8, !tbaa !37
  ret ptr %5
}

; Function Attrs: inlinehint nounwind uwtable
define internal i32 @Aig_ObjIsExor(ptr noundef %0) #4 {
  %2 = alloca ptr, align 8
  store ptr %0, ptr %2, align 8, !tbaa !24
  %3 = load ptr, ptr %2, align 8, !tbaa !24
  %4 = getelementptr inbounds nuw %struct.Aig_Obj_t_, ptr %3, i32 0, i32 3
  %5 = load i64, ptr %4, align 8
  %6 = and i64 %5, 7
  %7 = trunc i64 %6 to i32
  %8 = icmp eq i32 %7, 6
  %9 = zext i1 %8 to i32
  ret i32 %9
}

; Function Attrs: inlinehint nounwind uwtable
define internal i32 @Aig_ObjIsNode(ptr noundef %0) #4 {
  %2 = alloca ptr, align 8
  store ptr %0, ptr %2, align 8, !tbaa !24
  %3 = load ptr, ptr %2, align 8, !tbaa !24
  %4 = getelementptr inbounds nuw %struct.Aig_Obj_t_, ptr %3, i32 0, i32 3
  %5 = load i64, ptr %4, align 8
  %6 = and i64 %5, 7
  %7 = trunc i64 %6 to i32
  %8 = icmp eq i32 %7, 5
  br i1 %8, label %16, label %9

9:                                                ; preds = %1
  %10 = load ptr, ptr %2, align 8, !tbaa !24
  %11 = getelementptr inbounds nuw %struct.Aig_Obj_t_, ptr %10, i32 0, i32 3
  %12 = load i64, ptr %11, align 8
  %13 = and i64 %12, 7
  %14 = trunc i64 %13 to i32
  %15 = icmp eq i32 %14, 6
  br label %16

16:                                               ; preds = %9, %1
  %17 = phi i1 [ true, %1 ], [ %15, %9 ]
  %18 = zext i1 %17 to i32
  ret i32 %18
}

; Function Attrs: nounwind uwtable
define i32 @Aig_ObjRecognizeExor(ptr noundef %0, ptr noundef %1, ptr noundef %2) #0 {
  %4 = alloca i32, align 4
  %5 = alloca ptr, align 8
  %6 = alloca ptr, align 8
  %7 = alloca ptr, align 8
  %8 = alloca ptr, align 8
  %9 = alloca ptr, align 8
  %10 = alloca i32, align 4
  store ptr %0, ptr %5, align 8, !tbaa !24
  store ptr %1, ptr %6, align 8, !tbaa !46
  store ptr %2, ptr %7, align 8, !tbaa !46
  call void @llvm.lifetime.start.p0(i64 8, ptr %8) #10
  call void @llvm.lifetime.start.p0(i64 8, ptr %9) #10
  %11 = load ptr, ptr %5, align 8, !tbaa !24
  %12 = call i32 @Aig_ObjIsNode(ptr noundef %11)
  %13 = icmp ne i32 %12, 0
  br i1 %13, label %15, label %14

14:                                               ; preds = %3
  store i32 0, ptr %4, align 4
  store i32 1, ptr %10, align 4
  br label %85

15:                                               ; preds = %3
  %16 = load ptr, ptr %5, align 8, !tbaa !24
  %17 = call i32 @Aig_ObjIsExor(ptr noundef %16)
  %18 = icmp ne i32 %17, 0
  br i1 %18, label %19, label %26

19:                                               ; preds = %15
  %20 = load ptr, ptr %5, align 8, !tbaa !24
  %21 = call ptr @Aig_ObjChild0(ptr noundef %20)
  %22 = load ptr, ptr %6, align 8, !tbaa !46
  store ptr %21, ptr %22, align 8, !tbaa !24
  %23 = load ptr, ptr %5, align 8, !tbaa !24
  %24 = call ptr @Aig_ObjChild1(ptr noundef %23)
  %25 = load ptr, ptr %7, align 8, !tbaa !46
  store ptr %24, ptr %25, align 8, !tbaa !24
  store i32 1, ptr %4, align 4
  store i32 1, ptr %10, align 4
  br label %85

26:                                               ; preds = %15
  %27 = load ptr, ptr %5, align 8, !tbaa !24
  %28 = call ptr @Aig_ObjChild0(ptr noundef %27)
  store ptr %28, ptr %8, align 8, !tbaa !24
  %29 = load ptr, ptr %5, align 8, !tbaa !24
  %30 = call ptr @Aig_ObjChild1(ptr noundef %29)
  store ptr %30, ptr %9, align 8, !tbaa !24
  %31 = load ptr, ptr %8, align 8, !tbaa !24
  %32 = call i32 @Aig_IsComplement(ptr noundef %31)
  %33 = icmp ne i32 %32, 0
  br i1 %33, label %34, label %38

34:                                               ; preds = %26
  %35 = load ptr, ptr %9, align 8, !tbaa !24
  %36 = call i32 @Aig_IsComplement(ptr noundef %35)
  %37 = icmp ne i32 %36, 0
  br i1 %37, label %39, label %38

38:                                               ; preds = %34, %26
  store i32 0, ptr %4, align 4
  store i32 1, ptr %10, align 4
  br label %85

39:                                               ; preds = %34
  %40 = load ptr, ptr %8, align 8, !tbaa !24
  %41 = call ptr @Aig_Regular(ptr noundef %40)
  store ptr %41, ptr %8, align 8, !tbaa !24
  %42 = load ptr, ptr %9, align 8, !tbaa !24
  %43 = call ptr @Aig_Regular(ptr noundef %42)
  store ptr %43, ptr %9, align 8, !tbaa !24
  %44 = load ptr, ptr %8, align 8, !tbaa !24
  %45 = call i32 @Aig_ObjIsAnd(ptr noundef %44)
  %46 = icmp ne i32 %45, 0
  br i1 %46, label %47, label %51

47:                                               ; preds = %39
  %48 = load ptr, ptr %9, align 8, !tbaa !24
  %49 = call i32 @Aig_ObjIsAnd(ptr noundef %48)
  %50 = icmp ne i32 %49, 0
  br i1 %50, label %52, label %51

51:                                               ; preds = %47, %39
  store i32 0, ptr %4, align 4
  store i32 1, ptr %10, align 4
  br label %85

52:                                               ; preds = %47
  %53 = load ptr, ptr %8, align 8, !tbaa !24
  %54 = call ptr @Aig_ObjFanin0(ptr noundef %53)
  %55 = load ptr, ptr %9, align 8, !tbaa !24
  %56 = call ptr @Aig_ObjFanin0(ptr noundef %55)
  %57 = icmp ne ptr %54, %56
  br i1 %57, label %64, label %58

58:                                               ; preds = %52
  %59 = load ptr, ptr %8, align 8, !tbaa !24
  %60 = call ptr @Aig_ObjFanin1(ptr noundef %59)
  %61 = load ptr, ptr %9, align 8, !tbaa !24
  %62 = call ptr @Aig_ObjFanin1(ptr noundef %61)
  %63 = icmp ne ptr %60, %62
  br i1 %63, label %64, label %65

64:                                               ; preds = %58, %52
  store i32 0, ptr %4, align 4
  store i32 1, ptr %10, align 4
  br label %85

65:                                               ; preds = %58
  %66 = load ptr, ptr %8, align 8, !tbaa !24
  %67 = call i32 @Aig_ObjFaninC0(ptr noundef %66)
  %68 = load ptr, ptr %9, align 8, !tbaa !24
  %69 = call i32 @Aig_ObjFaninC0(ptr noundef %68)
  %70 = icmp eq i32 %67, %69
  br i1 %70, label %77, label %71

71:                                               ; preds = %65
  %72 = load ptr, ptr %8, align 8, !tbaa !24
  %73 = call i32 @Aig_ObjFaninC1(ptr noundef %72)
  %74 = load ptr, ptr %9, align 8, !tbaa !24
  %75 = call i32 @Aig_ObjFaninC1(ptr noundef %74)
  %76 = icmp eq i32 %73, %75
  br i1 %76, label %77, label %78

77:                                               ; preds = %71, %65
  store i32 0, ptr %4, align 4
  store i32 1, ptr %10, align 4
  br label %85

78:                                               ; preds = %71
  %79 = load ptr, ptr %8, align 8, !tbaa !24
  %80 = call ptr @Aig_ObjChild0(ptr noundef %79)
  %81 = load ptr, ptr %6, align 8, !tbaa !46
  store ptr %80, ptr %81, align 8, !tbaa !24
  %82 = load ptr, ptr %8, align 8, !tbaa !24
  %83 = call ptr @Aig_ObjChild1(ptr noundef %82)
  %84 = load ptr, ptr %7, align 8, !tbaa !46
  store ptr %83, ptr %84, align 8, !tbaa !24
  store i32 1, ptr %4, align 4
  store i32 1, ptr %10, align 4
  br label %85

85:                                               ; preds = %78, %77, %64, %51, %38, %19, %14
  call void @llvm.lifetime.end.p0(i64 8, ptr %9) #10
  call void @llvm.lifetime.end.p0(i64 8, ptr %8) #10
  %86 = load i32, ptr %4, align 4
  ret i32 %86
}

; Function Attrs: inlinehint nounwind uwtable
define internal ptr @Vec_PtrEntry(ptr noundef %0, i32 noundef %1) #4 {
  %3 = alloca ptr, align 8
  %4 = alloca i32, align 4
  store ptr %0, ptr %3, align 8, !tbaa !32
  store i32 %1, ptr %4, align 4, !tbaa !22
  %5 = load ptr, ptr %3, align 8, !tbaa !32
  %6 = getelementptr inbounds nuw %struct.Vec_Ptr_t_, ptr %5, i32 0, i32 2
  %7 = load ptr, ptr %6, align 8, !tbaa !35
  %8 = load i32, ptr %4, align 4, !tbaa !22
  %9 = sext i32 %8 to i64
  %10 = getelementptr inbounds ptr, ptr %7, i64 %9
  %11 = load ptr, ptr %10, align 8, !tbaa !36
  ret ptr %11
}

; Function Attrs: inlinehint nounwind uwtable
define internal i32 @Vec_PtrSize(ptr noundef %0) #4 {
  %2 = alloca ptr, align 8
  store ptr %0, ptr %2, align 8, !tbaa !32
  %3 = load ptr, ptr %2, align 8, !tbaa !32
  %4 = getelementptr inbounds nuw %struct.Vec_Ptr_t_, ptr %3, i32 0, i32 1
  %5 = load i32, ptr %4, align 4, !tbaa !33
  ret i32 %5
}

; Function Attrs: nounwind uwtable
define void @Aig_ManMuxesRef(ptr noundef %0, ptr noundef %1) #0 {
  %3 = alloca ptr, align 8
  %4 = alloca ptr, align 8
  %5 = alloca ptr, align 8
  %6 = alloca ptr, align 8
  %7 = alloca ptr, align 8
  %8 = alloca ptr, align 8
  %9 = alloca i32, align 4
  store ptr %0, ptr %3, align 8, !tbaa !3
  store ptr %1, ptr %4, align 8, !tbaa !32
  call void @llvm.lifetime.start.p0(i64 8, ptr %5) #10
  call void @llvm.lifetime.start.p0(i64 8, ptr %6) #10
  call void @llvm.lifetime.start.p0(i64 8, ptr %7) #10
  call void @llvm.lifetime.start.p0(i64 8, ptr %8) #10
  call void @llvm.lifetime.start.p0(i64 4, ptr %9) #10
  store i32 0, ptr %9, align 4, !tbaa !22
  br label %10

10:                                               ; preds = %69, %2
  %11 = load i32, ptr %9, align 4, !tbaa !22
  %12 = load ptr, ptr %4, align 8, !tbaa !32
  %13 = call i32 @Vec_PtrSize(ptr noundef %12)
  %14 = icmp slt i32 %11, %13
  br i1 %14, label %15, label %19

15:                                               ; preds = %10
  %16 = load ptr, ptr %4, align 8, !tbaa !32
  %17 = load i32, ptr %9, align 4, !tbaa !22
  %18 = call ptr @Vec_PtrEntry(ptr noundef %16, i32 noundef %17)
  store ptr %18, ptr %5, align 8, !tbaa !24
  br label %19

19:                                               ; preds = %15, %10
  %20 = phi i1 [ false, %10 ], [ true, %15 ]
  br i1 %20, label %21, label %72

21:                                               ; preds = %19
  %22 = load ptr, ptr %5, align 8, !tbaa !24
  %23 = call i32 @Aig_ObjRecognizeExor(ptr noundef %22, ptr noundef %6, ptr noundef %7)
  %24 = icmp ne i32 %23, 0
  br i1 %24, label %25, label %52

25:                                               ; preds = %21
  %26 = load ptr, ptr %6, align 8, !tbaa !24
  %27 = getelementptr inbounds nuw %struct.Aig_Obj_t_, ptr %26, i32 0, i32 3
  %28 = load i64, ptr %27, align 8
  %29 = lshr i64 %28, 6
  %30 = and i64 %29, 67108863
  %31 = trunc i64 %30 to i32
  %32 = add i32 %31, 1
  %33 = zext i32 %32 to i64
  %34 = load i64, ptr %27, align 8
  %35 = and i64 %33, 67108863
  %36 = shl i64 %35, 6
  %37 = and i64 %34, -4294967233
  %38 = or i64 %37, %36
  store i64 %38, ptr %27, align 8
  %39 = load ptr, ptr %7, align 8, !tbaa !24
  %40 = getelementptr inbounds nuw %struct.Aig_Obj_t_, ptr %39, i32 0, i32 3
  %41 = load i64, ptr %40, align 8
  %42 = lshr i64 %41, 6
  %43 = and i64 %42, 67108863
  %44 = trunc i64 %43 to i32
  %45 = add i32 %44, 1
  %46 = zext i32 %45 to i64
  %47 = load i64, ptr %40, align 8
  %48 = and i64 %46, 67108863
  %49 = shl i64 %48, 6
  %50 = and i64 %47, -4294967233
  %51 = or i64 %50, %49
  store i64 %51, ptr %40, align 8
  br label %68

52:                                               ; preds = %21
  %53 = load ptr, ptr %5, align 8, !tbaa !24
  %54 = call ptr @Aig_ObjRecognizeMux(ptr noundef %53, ptr noundef %6, ptr noundef %7)
  store ptr %54, ptr %8, align 8, !tbaa !24
  %55 = load ptr, ptr %8, align 8, !tbaa !24
  %56 = getelementptr inbounds nuw %struct.Aig_Obj_t_, ptr %55, i32 0, i32 3
  %57 = load i64, ptr %56, align 8
  %58 = lshr i64 %57, 6
  %59 = and i64 %58, 67108863
  %60 = trunc i64 %59 to i32
  %61 = add i32 %60, 1
  %62 = zext i32 %61 to i64
  %63 = load i64, ptr %56, align 8
  %64 = and i64 %62, 67108863
  %65 = shl i64 %64, 6
  %66 = and i64 %63, -4294967233
  %67 = or i64 %66, %65
  store i64 %67, ptr %56, align 8
  br label %68

68:                                               ; preds = %52, %25
  br label %69

69:                                               ; preds = %68
  %70 = load i32, ptr %9, align 4, !tbaa !22
  %71 = add nsw i32 %70, 1
  store i32 %71, ptr %9, align 4, !tbaa !22
  br label %10, !llvm.loop !126

72:                                               ; preds = %19
  call void @llvm.lifetime.end.p0(i64 4, ptr %9) #10
  call void @llvm.lifetime.end.p0(i64 8, ptr %8) #10
  call void @llvm.lifetime.end.p0(i64 8, ptr %7) #10
  call void @llvm.lifetime.end.p0(i64 8, ptr %6) #10
  call void @llvm.lifetime.end.p0(i64 8, ptr %5) #10
  ret void
}